target datalayout = "e-m:e-p270:32:32-p271:32:32-p272:64:64-i64:64-i128:128-f80:128-n8:16:32:64-S128"
target triple = "x86_64-pc-linux-gnu"

%struct.SDL_HIDAPI_Device = type { ptr, ptr, ptr, ptr, i16, i16, i16, ptr, %struct.SDL_GUID, i32, i32, i32, i32, i16, i16, i8, i32, i32, i32, ptr, ptr, ptr, ptr, %struct.SDL_AtomicInt, i32, ptr, i8, i8, i8, ptr, i32, ptr, ptr }
%struct.SDL_GUID = type { [16 x i8] }
%struct.SDL_AtomicInt = type { i32 }

; Function Attrs: nounwind uwtable
define internal i32 @ReadFeatureReport(ptr noundef %0, i8 noundef zeroext %1, ptr noundef %2, i64 noundef %3) #0 {
  %5 = alloca ptr, align 8
  %6 = alloca i8, align 1
  %7 = alloca ptr, align 8
  %8 = alloca i64, align 8
  store ptr %0, ptr %5, align 8
  store i8 %1, ptr %6, align 1
  store ptr %2, ptr %7, align 8
  store i64 %3, ptr %8, align 8
  %9 = load ptr, ptr %7, align 8
  %10 = load i64, ptr %8, align 8
  call void @llvm.memset.p0.i64(ptr align 1 %9, i8 0, i64 %10, i1 false)
  %11 = load i8, ptr %6, align 1
  %12 = load ptr, ptr %7, align 8
  %13 = getelementptr inbounds i8, ptr %12, i64 0
  store i8 %11, ptr %13, align 1
  %14 = load ptr, ptr %5, align 8
  %15 = load ptr, ptr %7, align 8
  %16 = load i64, ptr %8, align 8
  %17 = call i32 @SDL_hid_get_feature_report_REAL(ptr noundef %14, ptr noundef %15, i64 noundef %16)
  ret i32 %17
}

; Function Attrs: nounwind uwtable
define internal zeroext i1 @HIDAPI_DriverPS4_IsSupportedDevice(ptr noundef %0, ptr noundef %1, i32 noundef %2, i16 noundef zeroext %3, i16 noundef zeroext %4, i16 noundef zeroext %5, i32 noundef %6, i32 noundef %7, i32 noundef %8, i32 noundef %9) #0 {
  %11 = alloca i1, align 1
  %12 = alloca ptr, align 8
  %13 = alloca ptr, align 8
  %14 = alloca i32, align 4
  %15 = alloca i16, align 2
  %16 = alloca i16, align 2
  %17 = alloca i16, align 2
  %18 = alloca i32, align 4
  %19 = alloca i32, align 4
  %20 = alloca i32, align 4
  %21 = alloca i32, align 4
  %22 = alloca [64 x i8], align 16
  %23 = alloca i32, align 4
  %24 = alloca i32, align 4
  store ptr %0, ptr %12, align 8
  store ptr %1, ptr %13, align 8
  store i32 %2, ptr %14, align 4
  store i16 %3, ptr %15, align 2
  store i16 %4, ptr %16, align 2
  store i16 %5, ptr %17, align 2
  store i32 %6, ptr %18, align 4
  store i32 %7, ptr %19, align 4
  store i32 %8, ptr %20, align 4
  store i32 %9, ptr %21, align 4
  call void @llvm.lifetime.start.p0(i64 64, ptr %22) #6
  call void @llvm.lifetime.start.p0(i64 4, ptr %23) #6
  %25 = load i32, ptr %14, align 4
  %26 = icmp eq i32 %25, 5
  br i1 %26, label %27, label %28

27:                                               ; preds = %10
  store i1 true, ptr %11, align 1
  store i32 1, ptr %24, align 4
  br label %57

28:                                               ; preds = %10
  %29 = load i16, ptr %15, align 2
  %30 = load i16, ptr %16, align 2
  %31 = call zeroext i1 @HIDAPI_SupportsPlaystationDetection(i16 noundef zeroext %29, i16 noundef zeroext %30)
  br i1 %31, label %32, label %56

32:                                               ; preds = %28
  %33 = load ptr, ptr %12, align 8
  %34 = icmp ne ptr %33, null
  br i1 %34, label %35, label %55

35:                                               ; preds = %32
  %36 = load ptr, ptr %12, align 8
  %37 = getelementptr inbounds nuw %struct.SDL_HIDAPI_Device, ptr %36, i32 0, i32 22
  %38 = load ptr, ptr %37, align 8
  %39 = icmp ne ptr %38, null
  br i1 %39, label %40, label %55

40:                                               ; preds = %35
  %41 = load ptr, ptr %12, align 8
  %42 = getelementptr inbounds nuw %struct.SDL_HIDAPI_Device, ptr %41, i32 0, i32 22
  %43 = load ptr, ptr %42, align 8
  %44 = getelementptr inbounds [64 x i8], ptr %22, i64 0, i64 0
  %45 = call i32 @ReadFeatureReport(ptr noundef %43, i8 noundef zeroext 3, ptr noundef %44, i64 noundef 64)
  store i32 %45, ptr %23, align 4
  %46 = load i32, ptr %23, align 4
  %47 = icmp eq i32 %46, 48
  br i1 %47, label %48, label %54

48:                                               ; preds = %40
  %49 = getelementptr inbounds [64 x i8], ptr %22, i64 0, i64 2
  %50 = load i8, ptr %49, align 2
  %51 = zext i8 %50 to i32
  %52 = icmp eq i32 %51, 39
  br i1 %52, label %53, label %54

53:                                               ; preds = %48
  store i1 true, ptr %11, align 1
  store i32 1, ptr %24, align 4
  br label %57

54:                                               ; preds = %48, %40
  store i1 false, ptr %11, align 1
  store i32 1, ptr %24, align 4
  br label %57

55:                                               ; preds = %35, %32
  store i1 true, ptr %11, align 1
  store i32 1, ptr %24, align 4
  br label %57

56:                                               ; preds = %28
  store i1 false, ptr %11, align 1
  store i32 1, ptr %24, align 4
  br label %57

57:                                               ; preds = %56, %55, %54, %53, %27
  call void @llvm.lifetime.end.p0(i64 4, ptr %23) #6
  call void @llvm.lifetime.end.p0(i64 64, ptr %22) #6
  %58 = load i1, ptr %11, align 1
  ret i1 %58
}